target datalayout = "e-m:e-p270:32:32-p271:32:32-p272:64:64-i64:64-i128:128-f80:128-n8:16:32:64-S128"
target triple = "x86_64-pc-linux-gnu"

%union.OnigValue = type { %struct.anon }
%struct.anon = type { ptr, ptr }
%struct.CalloutListEntry = type { i32, i32, i32, i32, ptr, ptr, i32, ptr, ptr, %union.anon }
%union.anon = type { %struct.anon.1 }
%struct.anon.1 = type { i32, i32, [4 x i32], [4 x %union.OnigValue] }
%struct.anon.0 = type { ptr, ptr }

; Function Attrs: nounwind uwtable
define dso_local void @onig_free_reg_callout_list(i32 noundef %0, ptr noundef %1) #0 {
  %3 = alloca i32, align 4
  %4 = alloca ptr, align 8
  %5 = alloca i32, align 4
  %6 = alloca i32, align 4
  %7 = alloca i32, align 4
  store i32 %0, ptr %3, align 4, !tbaa !10
  store ptr %1, ptr %4, align 8, !tbaa !9
  call void @llvm.lifetime.start.p0(i64 4, ptr %5) #8
  call void @llvm.lifetime.start.p0(i64 4, ptr %6) #8
  %8 = load ptr, ptr %4, align 8, !tbaa !9
  %9 = icmp eq ptr %8, null
  br i1 %9, label %10, label %11

10:                                               ; preds = %2
  store i32 1, ptr %7, align 4
  br label %102

11:                                               ; preds = %2
  store i32 0, ptr %5, align 4, !tbaa !10
  br label %12

12:                                               ; preds = %97, %11
  %13 = load i32, ptr %5, align 4, !tbaa !10
  %14 = load i32, ptr %3, align 4, !tbaa !10
  %15 = icmp slt i32 %13, %14
  br i1 %15, label %16, label %100

16:                                               ; preds = %12
  %17 = load ptr, ptr %4, align 8, !tbaa !9
  %18 = load i32, ptr %5, align 4, !tbaa !10
  %19 = sext i32 %18 to i64
  %20 = getelementptr inbounds %struct.CalloutListEntry, ptr %17, i64 %19
  %21 = getelementptr inbounds nuw %struct.CalloutListEntry, ptr %20, i32 0, i32 1
  %22 = load i32, ptr %21, align 4, !tbaa !128
  %23 = icmp eq i32 %22, 1
  br i1 %23, label %24, label %78

24:                                               ; preds = %16
  store i32 0, ptr %6, align 4, !tbaa !10
  br label %25

25:                                               ; preds = %74, %24
  %26 = load i32, ptr %6, align 4, !tbaa !10
  %27 = load ptr, ptr %4, align 8, !tbaa !9
  %28 = load i32, ptr %5, align 4, !tbaa !10
  %29 = sext i32 %28 to i64
  %30 = getelementptr inbounds %struct.CalloutListEntry, ptr %27, i64 %29
  %31 = getelementptr inbounds nuw %struct.CalloutListEntry, ptr %30, i32 0, i32 9
  %32 = getelementptr inbounds nuw %struct.anon.1, ptr %31, i32 0, i32 1
  %33 = load i32, ptr %32, align 4, !tbaa !12
  %34 = icmp slt i32 %26, %33
  br i1 %34, label %35, label %77

35:                                               ; preds = %25
  %36 = load ptr, ptr %4, align 8, !tbaa !9
  %37 = load i32, ptr %5, align 4, !tbaa !10
  %38 = sext i32 %37 to i64
  %39 = getelementptr inbounds %struct.CalloutListEntry, ptr %36, i64 %38
  %40 = getelementptr inbounds nuw %struct.CalloutListEntry, ptr %39, i32 0, i32 9
  %41 = getelementptr inbounds nuw %struct.anon.1, ptr %40, i32 0, i32 2
  %42 = load i32, ptr %6, align 4, !tbaa !10
  %43 = sext i32 %42 to i64
  %44 = getelementptr inbounds [4 x i32], ptr %41, i64 0, i64 %43
  %45 = load i32, ptr %44, align 4, !tbaa !12
  %46 = icmp eq i32 %45, 4
  br i1 %46, label %47, label %73

47:                                               ; preds = %35
  %48 = load ptr, ptr %4, align 8, !tbaa !9
  %49 = load i32, ptr %5, align 4, !tbaa !10
  %50 = sext i32 %49 to i64
  %51 = getelementptr inbounds %struct.CalloutListEntry, ptr %48, i64 %50
  %52 = getelementptr inbounds nuw %struct.CalloutListEntry, ptr %51, i32 0, i32 9
  %53 = getelementptr inbounds nuw %struct.anon.1, ptr %52, i32 0, i32 3
  %54 = load i32, ptr %6, align 4, !tbaa !10
  %55 = sext i32 %54 to i64
  %56 = getelementptr inbounds [4 x %union.OnigValue], ptr %53, i64 0, i64 %55
  %57 = getelementptr inbounds nuw %struct.anon, ptr %56, i32 0, i32 0
  %58 = load ptr, ptr %57, align 8, !tbaa !12
  %59 = icmp ne ptr %58, null
  br i1 %59, label %60, label %72

60:                                               ; preds = %47
  %61 = load ptr, ptr %4, align 8, !tbaa !9
  %62 = load i32, ptr %5, align 4, !tbaa !10
  %63 = sext i32 %62 to i64
  %64 = getelementptr inbounds %struct.CalloutListEntry, ptr %61, i64 %63
  %65 = getelementptr inbounds nuw %struct.CalloutListEntry, ptr %64, i32 0, i32 9
  %66 = getelementptr inbounds nuw %struct.anon.1, ptr %65, i32 0, i32 3
  %67 = load i32, ptr %6, align 4, !tbaa !10
  %68 = sext i32 %67 to i64
  %69 = getelementptr inbounds [4 x %union.OnigValue], ptr %66, i64 0, i64 %68
  %70 = getelementptr inbounds nuw %struct.anon, ptr %69, i32 0, i32 0
  %71 = load ptr, ptr %70, align 8, !tbaa !12
  call void @free(ptr noundef %71) #8
  br label %72

72:                                               ; preds = %60, %47
  br label %73

73:                                               ; preds = %72, %35
  br label %74

74:                                               ; preds = %73
  %75 = load i32, ptr %6, align 4, !tbaa !10
  %76 = add nsw i32 %75, 1
  store i32 %76, ptr %6, align 4, !tbaa !10
  br label %25, !llvm.loop !129

77:                                               ; preds = %25
  br label %96

78:                                               ; preds = %16
  %79 = load ptr, ptr %4, align 8, !tbaa !9
  %80 = load i32, ptr %5, align 4, !tbaa !10
  %81 = sext i32 %80 to i64
  %82 = getelementptr inbounds %struct.CalloutListEntry, ptr %79, i64 %81
  %83 = getelementptr inbounds nuw %struct.CalloutListEntry, ptr %82, i32 0, i32 9
  %84 = getelementptr inbounds nuw %struct.anon.0, ptr %83, i32 0, i32 0
  %85 = load ptr, ptr %84, align 8, !tbaa !12
  %86 = icmp ne ptr %85, null
  br i1 %86, label %87, label %95

87:                                               ; preds = %78
  %88 = load ptr, ptr %4, align 8, !tbaa !9
  %89 = load i32, ptr %5, align 4, !tbaa !10
  %90 = sext i32 %89 to i64
  %91 = getelementptr inbounds %struct.CalloutListEntry, ptr %88, i64 %90
  %92 = getelementptr inbounds nuw %struct.CalloutListEntry, ptr %91, i32 0, i32 9
  %93 = getelementptr inbounds nuw %struct.anon.0, ptr %92, i32 0, i32 0
  %94 = load ptr, ptr %93, align 8, !tbaa !12
  call void @free(ptr noundef %94) #8
  br label %95

95:                                               ; preds = %87, %78
  br label %96

96:                                               ; preds = %95, %77
  br label %97

97:                                               ; preds = %96
  %98 = load i32, ptr %5, align 4, !tbaa !10
  %99 = add nsw i32 %98, 1
  store i32 %99, ptr %5, align 4, !tbaa !10
  br label %12, !llvm.loop !130

100:                                              ; preds = %12
  %101 = load ptr, ptr %4, align 8, !tbaa !9
  call void @free(ptr noundef %101) #8
  store i32 0, ptr %7, align 4
  br label %102

102:                                              ; preds = %100, %10
  call void @llvm.lifetime.end.p0(i64 4, ptr %6) #8
  call void @llvm.lifetime.end.p0(i64 4, ptr %5) #8
  %103 = load i32, ptr %7, align 4
  switch i32 %103, label %105 [
    i32 0, label %104
    i32 1, label %104
  ]

104:                                              ; preds = %102, %102
  ret void

105:                                              ; preds = %102
  unreachable
}