; Function Attrs: nounwind uwtable
define dso_local void @onig_free_reg_callout_list(i32 noundef %0, ptr noundef captures(address_is_null) %1) local_unnamed_addr #2 {
  %3 = icmp eq ptr %1, null
  br i1 %3, label %31, label %.preheader28

.preheader28:                                     ; preds = %2
  %4 = icmp sgt i32 %0, 0
  br i1 %4, label %.lr.ph31.preheader, label %._crit_edge

.lr.ph31.preheader:                               ; preds = %.preheader28
  %wide.trip.count = zext nneg i32 %0 to i64
  br label %.lr.ph31

.lr.ph31:                                         ; preds = %.lr.ph31.preheader, %.loopexit
  %indvars.iv33 = phi i64 [ 0, %.lr.ph31.preheader ], [ %indvars.iv.next34, %.loopexit ]
  %5 = getelementptr inbounds nuw %struct.CalloutListEntry, ptr %1, i64 %indvars.iv33
  %6 = getelementptr inbounds nuw i8, ptr %5, i64 4
  %7 = load i32, ptr %6, align 4, !tbaa !116
  %8 = icmp eq i32 %7, 1
  br i1 %8, label %.preheader, label %27

.preheader:                                       ; preds = %.lr.ph31
  %9 = getelementptr inbounds nuw i8, ptr %5, i64 60
  %10 = load i32, ptr %9, align 4, !tbaa !10
  %11 = icmp sgt i32 %10, 0
  br i1 %11, label %.lr.ph, label %.loopexit

.lr.ph:                                           ; preds = %.preheader
  %12 = getelementptr inbounds nuw i8, ptr %5, i64 64
  %13 = getelementptr inbounds nuw i8, ptr %5, i64 80
  br label %14

14:                                               ; preds = %.lr.ph, %23
  %15 = phi i32 [ %10, %.lr.ph ], [ %24, %23 ]
  %indvars.iv = phi i64 [ 0, %.lr.ph ], [ %indvars.iv.next, %23 ]
  %16 = getelementptr inbounds nuw [4 x i32], ptr %12, i64 0, i64 %indvars.iv
  %17 = load i32, ptr %16, align 4, !tbaa !10
  %18 = icmp eq i32 %17, 4
  br i1 %18, label %19, label %23

19:                                               ; preds = %14
  %20 = getelementptr inbounds nuw [4 x %union.OnigValue], ptr %13, i64 0, i64 %indvars.iv
  %21 = load ptr, ptr %20, align 8, !tbaa !10
  %.not27 = icmp eq ptr %21, null
  br i1 %.not27, label %23, label %22

22:                                               ; preds = %19
  tail call void @free(ptr noundef nonnull %21) #24
  %.pre = load i32, ptr %9, align 4, !tbaa !10
  br label %23

23:                                               ; preds = %14, %22, %19
  %24 = phi i32 [ %15, %14 ], [ %.pre, %22 ], [ %15, %19 ]
  %indvars.iv.next = add nuw nsw i64 %indvars.iv, 1
  %25 = sext i32 %24 to i64
  %26 = icmp slt i64 %indvars.iv.next, %25
  br i1 %26, label %14, label %.loopexit, !llvm.loop !117

27:                                               ; preds = %.lr.ph31
  %28 = getelementptr inbounds nuw i8, ptr %5, i64 56
  %29 = load ptr, ptr %28, align 8, !tbaa !10
  %.not = icmp eq ptr %29, null
  br i1 %.not, label %.loopexit, label %30

30:                                               ; preds = %27
  tail call void @free(ptr noundef nonnull %29) #24
  br label %.loopexit

.loopexit:                                        ; preds = %23, %.preheader, %30, %27
  %indvars.iv.next34 = add nuw nsw i64 %indvars.iv33, 1
  %exitcond.not = icmp eq i64 %indvars.iv.next34, %wide.trip.count
  br i1 %exitcond.not, label %._crit_edge, label %.lr.ph31, !llvm.loop !118

._crit_edge:                                      ; preds = %.loopexit, %.preheader28
  tail call void @free(ptr noundef nonnull %1) #24
  br label %31

31:                                               ; preds = %2, %._crit_edge
  ret void
}